target datalayout = "e-m:e-p270:32:32-p271:32:32-p272:64:64-i64:64-i128:128-f80:128-n8:16:32:64-S128"
target triple = "x86_64-pc-linux-gnu"

%struct._phpdbg_param = type { i32, i64, i64, %struct.anon, %struct.anon.0, ptr, i64, ptr, ptr }
%struct.anon = type { ptr, i64 }
%struct.anon.0 = type { ptr, ptr }

; Function Attrs: nounwind uwtable
define void @phpdbg_stack_separate(ptr noundef %0) #0 {
  %2 = alloca ptr, align 8
  %3 = alloca ptr, align 8
  store ptr %0, ptr %2, align 8
  %4 = call noalias ptr @calloc(i64 noundef 1, i64 noundef 88) #14
  store ptr %4, ptr %3, align 8
  %5 = load ptr, ptr %3, align 8
  %6 = getelementptr inbounds %struct._phpdbg_param, ptr %5, i32 0, i32 0
  store i32 9, ptr %6, align 8
  %7 = load ptr, ptr %2, align 8
  %8 = getelementptr inbounds %struct._phpdbg_param, ptr %7, i32 0, i32 7
  %9 = load ptr, ptr %8, align 8
  %10 = load ptr, ptr %3, align 8
  %11 = getelementptr inbounds %struct._phpdbg_param, ptr %10, i32 0, i32 7
  store ptr %9, ptr %11, align 8
  %12 = load ptr, ptr %3, align 8
  %13 = load ptr, ptr %2, align 8
  %14 = getelementptr inbounds %struct._phpdbg_param, ptr %13, i32 0, i32 7
  store ptr %12, ptr %14, align 8
  %15 = load ptr, ptr %2, align 8
  %16 = getelementptr inbounds %struct._phpdbg_param, ptr %15, i32 0, i32 8
  %17 = load ptr, ptr %16, align 8
  %18 = load ptr, ptr %3, align 8
  %19 = getelementptr inbounds %struct._phpdbg_param, ptr %18, i32 0, i32 8
  store ptr %17, ptr %19, align 8
  ret void
}